target datalayout = "e-m:e-p270:32:32-p271:32:32-p272:64:64-i64:64-i128:128-f80:128-n8:16:32:64-S128"
target triple = "x86_64-pc-linux-gnu"

%struct.FFTXCodeletOptions = type { i32 }
%struct.AVTXContext = type { i32, i32, ptr, ptr, ptr, ptr, [4 x ptr], i32, [4 x ptr], ptr, i32, i64, i32, float, double, ptr }
%struct.FFTXCodelet = type { ptr, ptr, i32, i64, [16 x i32], i32, i32, i32, ptr, ptr, i32, i32 }

@__const.ff_tx_mdct_pfa_init_int32_c.sub_opts = private unnamed_addr constant %struct.FFTXCodeletOptions { i32 2 }, align 4

; Function Attrs: cold nounwind optsize uwtable
define internal i32 @ff_tx_mdct_pfa_init_int32_c(ptr noundef %0, ptr noundef %1, i64 noundef %2, ptr noundef %3, i32 noundef %4, i32 noundef %5, ptr noundef %6) #0 {
  %8 = alloca i32, align 4
  %9 = alloca ptr, align 8
  %10 = alloca ptr, align 8
  %11 = alloca i64, align 8
  %12 = alloca ptr, align 8
  %13 = alloca i32, align 4
  %14 = alloca i32, align 4
  %15 = alloca ptr, align 8
  %16 = alloca i32, align 4
  %17 = alloca i32, align 4
  %18 = alloca %struct.FFTXCodeletOptions, align 4
  %19 = alloca i32, align 4
  %20 = alloca [15 x i32], align 16
  %21 = alloca i32, align 4
  %22 = alloca i32, align 4
  %23 = alloca i32, align 4
  %24 = alloca i32, align 4
  store ptr %0, ptr %9, align 8, !tbaa !17
  store ptr %1, ptr %10, align 8, !tbaa !58
  store i64 %2, ptr %11, align 8, !tbaa !30
  store ptr %3, ptr %12, align 8, !tbaa !59
  store i32 %4, ptr %13, align 4, !tbaa !4
  store i32 %5, ptr %14, align 4, !tbaa !4
  store ptr %6, ptr %15, align 8, !tbaa !8
  call void @llvm.lifetime.start.p0(i64 4, ptr %16) #10
  call void @llvm.lifetime.start.p0(i64 4, ptr %17) #10
  call void @llvm.lifetime.start.p0(i64 4, ptr %18) #10
  call void @llvm.memcpy.p0.p0.i64(ptr align 4 %18, ptr align 4 @__const.ff_tx_mdct_pfa_init_int32_c.sub_opts, i64 4, i1 false)
  %25 = load i32, ptr %13, align 4, !tbaa !4
  %26 = ashr i32 %25, 1
  store i32 %26, ptr %13, align 4, !tbaa !4
  %27 = load i32, ptr %13, align 4, !tbaa !4
  %28 = load ptr, ptr %10, align 8, !tbaa !58
  %29 = getelementptr inbounds nuw %struct.FFTXCodelet, ptr %28, i32 0, i32 4
  %30 = getelementptr inbounds [16 x i32], ptr %29, i64 0, i64 0
  %31 = load i32, ptr %30, align 8, !tbaa !4
  %32 = sdiv i32 %27, %31
  store i32 %32, ptr %17, align 4, !tbaa !4
  %33 = load ptr, ptr %15, align 8, !tbaa !8
  %34 = load float, ptr %33, align 4, !tbaa !91
  %35 = fpext nsz float %34 to double
  %36 = load ptr, ptr %9, align 8, !tbaa !17
  %37 = getelementptr inbounds nuw %struct.AVTXContext, ptr %36, i32 0, i32 14
  store double %35, ptr %37, align 8, !tbaa !28
  %38 = load ptr, ptr %9, align 8, !tbaa !17
  %39 = getelementptr inbounds nuw %struct.AVTXContext, ptr %38, i32 0, i32 14
  %40 = load double, ptr %39, align 8, !tbaa !28
  %41 = fptrunc nsz double %40 to float
  %42 = load ptr, ptr %9, align 8, !tbaa !17
  %43 = getelementptr inbounds nuw %struct.AVTXContext, ptr %42, i32 0, i32 13
  store float %41, ptr %43, align 4, !tbaa !92
  %44 = load i64, ptr %11, align 8, !tbaa !30
  %45 = and i64 %44, 9223372036854775807
  store i64 %45, ptr %11, align 8, !tbaa !30
  %46 = load i64, ptr %11, align 8, !tbaa !30
  %47 = or i64 %46, 1
  store i64 %47, ptr %11, align 8, !tbaa !30
  %48 = load i64, ptr %11, align 8, !tbaa !30
  %49 = or i64 %48, 2305843009213693952
  store i64 %49, ptr %11, align 8, !tbaa !30
  %50 = load ptr, ptr %9, align 8, !tbaa !17
  %51 = load i64, ptr %11, align 8, !tbaa !30
  %52 = load i32, ptr %17, align 4, !tbaa !4
  %53 = load i32, ptr %14, align 4, !tbaa !4
  %54 = load ptr, ptr %15, align 8, !tbaa !8
  %55 = call i32 @ff_tx_init_subtx(ptr noundef %50, i32 noundef 4, i64 noundef %51, ptr noundef %18, i32 noundef %52, i32 noundef %53, ptr noundef %54)
  store i32 %55, ptr %16, align 4, !tbaa !4
  %56 = icmp ne i32 %55, 0
  br i1 %56, label %57, label %59

57:                                               ; preds = %7
  %58 = load i32, ptr %16, align 4, !tbaa !4
  store i32 %58, ptr %8, align 4
  store i32 1, ptr %19, align 4
  br label %185

59:                                               ; preds = %7
  %60 = load ptr, ptr %9, align 8, !tbaa !17
  %61 = load ptr, ptr %12, align 8, !tbaa !59
  %62 = load ptr, ptr %9, align 8, !tbaa !17
  %63 = getelementptr inbounds nuw %struct.AVTXContext, ptr %62, i32 0, i32 1
  %64 = load i32, ptr %63, align 4, !tbaa !82
  %65 = load ptr, ptr %10, align 8, !tbaa !58
  %66 = getelementptr inbounds nuw %struct.FFTXCodelet, ptr %65, i32 0, i32 4
  %67 = getelementptr inbounds [16 x i32], ptr %66, i64 0, i64 0
  %68 = load i32, ptr %67, align 8, !tbaa !4
  %69 = load i32, ptr %17, align 4, !tbaa !4
  %70 = call i32 @ff_tx_gen_compound_mapping(ptr noundef %60, ptr noundef %61, i32 noundef %64, i32 noundef %68, i32 noundef %69)
  store i32 %70, ptr %16, align 4, !tbaa !4
  %71 = icmp ne i32 %70, 0
  br i1 %71, label %72, label %74

72:                                               ; preds = %59
  %73 = load i32, ptr %16, align 4, !tbaa !4
  store i32 %73, ptr %8, align 4
  store i32 1, ptr %19, align 4
  br label %185

74:                                               ; preds = %59
  %75 = load ptr, ptr %10, align 8, !tbaa !58
  %76 = getelementptr inbounds nuw %struct.FFTXCodelet, ptr %75, i32 0, i32 4
  %77 = getelementptr inbounds [16 x i32], ptr %76, i64 0, i64 0
  %78 = load i32, ptr %77, align 8, !tbaa !4
  %79 = icmp eq i32 %78, 15
  br i1 %79, label %80, label %139

80:                                               ; preds = %74
  br label %81

81:                                               ; preds = %80
  call void @llvm.lifetime.start.p0(i64 60, ptr %20) #10
  call void @llvm.lifetime.start.p0(i64 4, ptr %21) #10
  store i32 0, ptr %21, align 4, !tbaa !4
  br label %82

82:                                               ; preds = %133, %81
  %83 = load i32, ptr %21, align 4, !tbaa !4
  %84 = load i32, ptr %13, align 4, !tbaa !4
  %85 = icmp slt i32 %83, %84
  br i1 %85, label %87, label %86

86:                                               ; preds = %82
  store i32 4, ptr %19, align 4
  call void @llvm.lifetime.end.p0(i64 4, ptr %21) #10
  br label %136

87:                                               ; preds = %82
  %88 = getelementptr inbounds [15 x i32], ptr %20, i64 0, i64 0
  %89 = load ptr, ptr %9, align 8, !tbaa !17
  %90 = getelementptr inbounds nuw %struct.AVTXContext, ptr %89, i32 0, i32 2
  %91 = load ptr, ptr %90, align 8, !tbaa !66
  %92 = load i32, ptr %21, align 4, !tbaa !4
  %93 = sext i32 %92 to i64
  %94 = getelementptr inbounds i32, ptr %91, i64 %93
  call void @llvm.memcpy.p0.p0.i64(ptr align 16 %88, ptr align 4 %94, i64 60, i1 false)
  call void @llvm.lifetime.start.p0(i64 4, ptr %22) #10
  store i32 0, ptr %22, align 4, !tbaa !4
  br label %95

95:                                               ; preds = %129, %87
  %96 = load i32, ptr %22, align 4, !tbaa !4
  %97 = icmp slt i32 %96, 5
  br i1 %97, label %99, label %98

98:                                               ; preds = %95
  store i32 7, ptr %19, align 4
  call void @llvm.lifetime.end.p0(i64 4, ptr %22) #10
  br label %132

99:                                               ; preds = %95
  call void @llvm.lifetime.start.p0(i64 4, ptr %23) #10
  store i32 0, ptr %23, align 4, !tbaa !4
  br label %100

100:                                              ; preds = %125, %99
  %101 = load i32, ptr %23, align 4, !tbaa !4
  %102 = icmp slt i32 %101, 3
  br i1 %102, label %104, label %103

103:                                              ; preds = %100
  store i32 10, ptr %19, align 4
  call void @llvm.lifetime.end.p0(i64 4, ptr %23) #10
  br label %128

104:                                              ; preds = %100
  %105 = load i32, ptr %22, align 4, !tbaa !4
  %106 = mul nsw i32 %105, 3
  %107 = load i32, ptr %23, align 4, !tbaa !4
  %108 = mul nsw i32 %107, 5
  %109 = add nsw i32 %106, %108
  %110 = srem i32 %109, 15
  %111 = sext i32 %110 to i64
  %112 = getelementptr inbounds [15 x i32], ptr %20, i64 0, i64 %111
  %113 = load i32, ptr %112, align 4, !tbaa !4
  %114 = load ptr, ptr %9, align 8, !tbaa !17
  %115 = getelementptr inbounds nuw %struct.AVTXContext, ptr %114, i32 0, i32 2
  %116 = load ptr, ptr %115, align 8, !tbaa !66
  %117 = load i32, ptr %21, align 4, !tbaa !4
  %118 = load i32, ptr %22, align 4, !tbaa !4
  %119 = mul nsw i32 %118, 3
  %120 = add nsw i32 %117, %119
  %121 = load i32, ptr %23, align 4, !tbaa !4
  %122 = add nsw i32 %120, %121
  %123 = sext i32 %122 to i64
  %124 = getelementptr inbounds i32, ptr %116, i64 %123
  store i32 %113, ptr %124, align 4, !tbaa !4
  br label %125

125:                                              ; preds = %104
  %126 = load i32, ptr %23, align 4, !tbaa !4
  %127 = add nsw i32 %126, 1
  store i32 %127, ptr %23, align 4, !tbaa !4
  br label %100, !llvm.loop !101

128:                                              ; preds = %103
  br label %129

129:                                              ; preds = %128
  %130 = load i32, ptr %22, align 4, !tbaa !4
  %131 = add nsw i32 %130, 1
  store i32 %131, ptr %22, align 4, !tbaa !4
  br label %95, !llvm.loop !102

132:                                              ; preds = %98
  br label %133

133:                                              ; preds = %132
  %134 = load i32, ptr %21, align 4, !tbaa !4
  %135 = add nsw i32 %134, 15
  store i32 %135, ptr %21, align 4, !tbaa !4
  br label %82, !llvm.loop !103

136:                                              ; preds = %86
  call void @llvm.lifetime.end.p0(i64 60, ptr %20) #10
  br label %137

137:                                              ; preds = %136
  br label %138

138:                                              ; preds = %137
  br label %139

139:                                              ; preds = %138, %74
  %140 = load ptr, ptr %9, align 8, !tbaa !17
  %141 = load i32, ptr %14, align 4, !tbaa !4
  %142 = icmp ne i32 %141, 0
  br i1 %142, label %143, label %147

143:                                              ; preds = %139
  %144 = load ptr, ptr %9, align 8, !tbaa !17
  %145 = getelementptr inbounds nuw %struct.AVTXContext, ptr %144, i32 0, i32 2
  %146 = load ptr, ptr %145, align 8, !tbaa !66
  br label %148

147:                                              ; preds = %139
  br label %148

148:                                              ; preds = %147, %143
  %149 = phi ptr [ %146, %143 ], [ null, %147 ]
  %150 = call i32 @ff_tx_mdct_gen_exp_int32(ptr noundef %140, ptr noundef %149)
  store i32 %150, ptr %16, align 4, !tbaa !4
  %151 = icmp ne i32 %150, 0
  br i1 %151, label %152, label %154

152:                                              ; preds = %148
  %153 = load i32, ptr %16, align 4, !tbaa !4
  store i32 %153, ptr %8, align 4
  store i32 1, ptr %19, align 4
  br label %185

154:                                              ; preds = %148
  call void @llvm.lifetime.start.p0(i64 4, ptr %24) #10
  store i32 0, ptr %24, align 4, !tbaa !4
  br label %155

155:                                              ; preds = %169, %154
  %156 = load i32, ptr %24, align 4, !tbaa !4
  %157 = load i32, ptr %13, align 4, !tbaa !4
  %158 = icmp slt i32 %156, %157
  br i1 %158, label %160, label %159

159:                                              ; preds = %155
  store i32 13, ptr %19, align 4
  call void @llvm.lifetime.end.p0(i64 4, ptr %24) #10
  br label %172

160:                                              ; preds = %155
  %161 = load ptr, ptr %9, align 8, !tbaa !17
  %162 = getelementptr inbounds nuw %struct.AVTXContext, ptr %161, i32 0, i32 2
  %163 = load ptr, ptr %162, align 8, !tbaa !66
  %164 = load i32, ptr %24, align 4, !tbaa !4
  %165 = sext i32 %164 to i64
  %166 = getelementptr inbounds i32, ptr %163, i64 %165
  %167 = load i32, ptr %166, align 4, !tbaa !4
  %168 = shl i32 %167, 1
  store i32 %168, ptr %166, align 4, !tbaa !4
  br label %169

169:                                              ; preds = %160
  %170 = load i32, ptr %24, align 4, !tbaa !4
  %171 = add nsw i32 %170, 1
  store i32 %171, ptr %24, align 4, !tbaa !4
  br label %155, !llvm.loop !104

172:                                              ; preds = %159
  %173 = load i32, ptr %13, align 4, !tbaa !4
  %174 = sext i32 %173 to i64
  %175 = mul i64 %174, 8
  %176 = call noalias ptr @av_malloc(i64 noundef %175)
  %177 = load ptr, ptr %9, align 8, !tbaa !17
  %178 = getelementptr inbounds nuw %struct.AVTXContext, ptr %177, i32 0, i32 4
  store ptr %176, ptr %178, align 8, !tbaa !64
  %179 = icmp ne ptr %176, null
  br i1 %179, label %181, label %180

180:                                              ; preds = %172
  store i32 -12, ptr %8, align 4
  store i32 1, ptr %19, align 4
  br label %185

181:                                              ; preds = %172
  %182 = load i32, ptr %13, align 4, !tbaa !4
  %183 = load i32, ptr %17, align 4, !tbaa !4
  %184 = sdiv i32 %182, %183
  call void @ff_tx_init_tabs_int32(i32 noundef %184) #12
  store i32 0, ptr %8, align 4
  store i32 1, ptr %19, align 4
  br label %185

185:                                              ; preds = %181, %180, %152, %72, %57
  call void @llvm.lifetime.end.p0(i64 4, ptr %18) #10
  call void @llvm.lifetime.end.p0(i64 4, ptr %17) #10
  call void @llvm.lifetime.end.p0(i64 4, ptr %16) #10
  %186 = load i32, ptr %8, align 4
  ret i32 %186
}