; Function Attrs: cold nounwind optsize uwtable
define internal i32 @ff_tx_mdct_pfa_init_int32_c(ptr noundef initializes((140, 152)) %0, ptr noundef readonly captures(none) %1, i64 noundef %2, ptr noundef %3, i32 noundef %4, i32 noundef %5, ptr noundef %6) #0 {
  %8 = alloca %struct.FFTXCodeletOptions, align 4
  %9 = alloca [15 x i32], align 16
  call void @llvm.lifetime.start.p0(i64 4, ptr nonnull %8) #16
  store i32 2, ptr %8, align 4
  %10 = ashr i32 %4, 1
  %11 = getelementptr inbounds nuw i8, ptr %1, i64 32
  %12 = load i32, ptr %11, align 8, !tbaa !10
  %13 = sdiv i32 %10, %12
  %14 = load float, ptr %6, align 4, !tbaa !82
  %15 = fpext nsz float %14 to double
  %16 = getelementptr inbounds nuw i8, ptr %0, i64 144
  store double %15, ptr %16, align 8, !tbaa !25
  %17 = getelementptr inbounds nuw i8, ptr %0, i64 140
  store float %14, ptr %17, align 4, !tbaa !83
  %18 = and i64 %2, 6917529027641081854
  %19 = or disjoint i64 %18, 2305843009213693953
  %20 = call i32 @ff_tx_init_subtx(ptr noundef %0, i32 noundef 4, i64 noundef %19, ptr noundef nonnull %8, i32 noundef %13, i32 noundef %5, ptr noundef nonnull %6) #16
  %.not = icmp eq i32 %20, 0
  br i1 %.not, label %21, label %69

21:                                               ; preds = %7
  %22 = getelementptr inbounds nuw i8, ptr %0, i64 4
  %23 = load i32, ptr %22, align 4, !tbaa !73
  %24 = load i32, ptr %11, align 8, !tbaa !10
  %25 = call i32 @ff_tx_gen_compound_mapping(ptr noundef nonnull %0, ptr noundef %3, i32 noundef %23, i32 noundef %24, i32 noundef %13) #16
  %.not59 = icmp eq i32 %25, 0
  br i1 %.not59, label %26, label %69

26:                                               ; preds = %21
  %27 = load i32, ptr %11, align 8, !tbaa !10
  %28 = icmp eq i32 %27, 15
  br i1 %28, label %29, label %49

29:                                               ; preds = %26
  call void @llvm.lifetime.start.p0(i64 60, ptr nonnull %9) #16
  %30 = icmp sgt i32 %10, 0
  br i1 %30, label %.lr.ph, label %._crit_edge

.lr.ph:                                           ; preds = %29
  %31 = getelementptr inbounds nuw i8, ptr %0, i64 8
  %32 = load ptr, ptr %31, align 8, !tbaa !56
  %33 = zext nneg i32 %10 to i64
  br label %34

._crit_edge:                                      ; preds = %37, %29
  call void @llvm.lifetime.end.p0(i64 60, ptr nonnull %9) #16
  br label %49

34:                                               ; preds = %.lr.ph, %37
  %indvars.iv75 = phi i64 [ 0, %.lr.ph ], [ %indvars.iv.next76, %37 ]
  %35 = getelementptr inbounds nuw i32, ptr %32, i64 %indvars.iv75
  call void @llvm.memcpy.p0.p0.i64(ptr noundef nonnull align 16 dereferenceable(60) %9, ptr noundef nonnull align 4 dereferenceable(60) %35, i64 60, i1 false)
  %invariant.gep = getelementptr inbounds nuw i32, ptr %32, i64 %indvars.iv75
  br label %.preheader63

.preheader63:                                     ; preds = %34, %39
  %indvars.iv71 = phi i64 [ 0, %34 ], [ %indvars.iv.next72, %39 ]
  %36 = mul nuw nsw i64 %indvars.iv71, 3
  %gep = getelementptr inbounds nuw i32, ptr %invariant.gep, i64 %36
  br label %40

37:                                               ; preds = %39
  %indvars.iv.next76 = add nuw nsw i64 %indvars.iv75, 15
  %38 = icmp samesign ult i64 %indvars.iv.next76, %33
  br i1 %38, label %34, label %._crit_edge, !llvm.loop !92

39:                                               ; preds = %40
  %indvars.iv.next72 = add nuw nsw i64 %indvars.iv71, 1
  %exitcond74.not = icmp eq i64 %indvars.iv.next72, 5
  br i1 %exitcond74.not, label %37, label %.preheader63, !llvm.loop !93

40:                                               ; preds = %.preheader63, %40
  %indvars.iv = phi i64 [ 0, %.preheader63 ], [ %indvars.iv.next, %40 ]
  %41 = mul nuw nsw i64 %indvars.iv, 5
  %42 = add nuw nsw i64 %41, %36
  %43 = trunc nuw nsw i64 %42 to i32
  %44 = urem i32 %43, 15
  %45 = zext nneg i32 %44 to i64
  %46 = getelementptr inbounds nuw [15 x i32], ptr %9, i64 0, i64 %45
  %47 = load i32, ptr %46, align 4, !tbaa !10
  %48 = getelementptr inbounds nuw i32, ptr %gep, i64 %indvars.iv
  store i32 %47, ptr %48, align 4, !tbaa !10
  %indvars.iv.next = add nuw nsw i64 %indvars.iv, 1
  %exitcond.not = icmp eq i64 %indvars.iv.next, 3
  br i1 %exitcond.not, label %39, label %40, !llvm.loop !94

49:                                               ; preds = %._crit_edge, %26
  %.not60 = icmp eq i32 %5, 0
  br i1 %.not60, label %53, label %50

50:                                               ; preds = %49
  %51 = getelementptr inbounds nuw i8, ptr %0, i64 8
  %52 = load ptr, ptr %51, align 8, !tbaa !56
  br label %53

53:                                               ; preds = %49, %50
  %54 = phi ptr [ %52, %50 ], [ null, %49 ]
  %55 = call i32 @ff_tx_mdct_gen_exp_int32(ptr noundef nonnull %0, ptr noundef %54)
  %.not61 = icmp eq i32 %55, 0
  br i1 %.not61, label %.preheader, label %69

.preheader:                                       ; preds = %53
  %56 = icmp sgt i32 %10, 0
  br i1 %56, label %.lr.ph68, label %._crit_edge69

.lr.ph68:                                         ; preds = %.preheader
  %57 = getelementptr inbounds nuw i8, ptr %0, i64 8
  %58 = load ptr, ptr %57, align 8, !tbaa !56
  %wide.trip.count = zext nneg i32 %10 to i64
  br label %63

._crit_edge69:                                    ; preds = %63, %.preheader
  %59 = sext i32 %10 to i64
  %60 = shl nsw i64 %59, 3
  %61 = call noalias ptr @av_malloc(i64 noundef %60) #16
  %62 = getelementptr inbounds nuw i8, ptr %0, i64 24
  store ptr %61, ptr %62, align 8, !tbaa !54
  %.not62 = icmp eq ptr %61, null
  br i1 %.not62, label %69, label %67

63:                                               ; preds = %.lr.ph68, %63
  %indvars.iv78 = phi i64 [ 0, %.lr.ph68 ], [ %indvars.iv.next79, %63 ]
  %64 = getelementptr inbounds nuw i32, ptr %58, i64 %indvars.iv78
  %65 = load i32, ptr %64, align 4, !tbaa !10
  %66 = shl i32 %65, 1
  store i32 %66, ptr %64, align 4, !tbaa !10
  %indvars.iv.next79 = add nuw nsw i64 %indvars.iv78, 1
  %exitcond81.not = icmp eq i64 %indvars.iv.next79, %wide.trip.count
  br i1 %exitcond81.not, label %._crit_edge69, label %63, !llvm.loop !95

67:                                               ; preds = %._crit_edge69
  %68 = sdiv i32 %10, %13
  call void @ff_tx_init_tabs_int32(i32 noundef %68) #17
  br label %69

69:                                               ; preds = %._crit_edge69, %53, %21, %7, %67
  %.054 = phi i32 [ 0, %67 ], [ %20, %7 ], [ %25, %21 ], [ %55, %53 ], [ -12, %._crit_edge69 ]
  call void @llvm.lifetime.end.p0(i64 4, ptr nonnull %8) #16
  ret i32 %.054
}